; Function Attrs: mustprogress uwtable
define hidden noundef i32 @_ZNK9ArgOption15invoke_callbackEv(ptr noundef nonnull readonly align 8 captures(none) dereferenceable(200) %0) local_unnamed_addr #3 align 2 personality ptr @__gxx_personality_v0 {
  %2 = getelementptr inbounds nuw i8, ptr %0, i64 176
  %3 = getelementptr inbounds nuw i8, ptr %0, i64 184
  %4 = load ptr, ptr %3, align 8, !tbaa !43
  %5 = load ptr, ptr %2, align 8, !tbaa !47
  %6 = ptrtoint ptr %4 to i64
  %7 = ptrtoint ptr %5 to i64
  %8 = sub i64 %6, %7
  %9 = lshr exact i64 %8, 5
  %10 = trunc i64 %9 to i32
  %11 = icmp eq i32 %10, 0
  br i1 %11, label %_ZNK9ArgOption15invoke_callbackEiPPKc.exit, label %12

12:                                               ; preds = %1
  %sext = shl i64 %8, 27
  %13 = ashr exact i64 %sext, 29
  %14 = alloca i8, i64 %13, align 16
  %15 = icmp sgt i32 %10, 0
  br i1 %15, label %.lr.ph.preheader, label %._crit_edge

.lr.ph.preheader:                                 ; preds = %12
  %wide.trip.count = and i64 %9, 2147483647
  br label %.lr.ph

._crit_edge:                                      ; preds = %.lr.ph, %12
  %16 = getelementptr inbounds nuw i8, ptr %0, i64 160
  %17 = load ptr, ptr %16, align 8, !tbaa !48
  %.not.i = icmp eq ptr %17, null
  br i1 %.not.i, label %_ZNK9ArgOption15invoke_callbackEiPPKc.exit, label %18

18:                                               ; preds = %._crit_edge
  %19 = call noundef i32 %17(i32 noundef %10, ptr noundef nonnull %14)
  br label %_ZNK9ArgOption15invoke_callbackEiPPKc.exit

.lr.ph:                                           ; preds = %.lr.ph.preheader, %.lr.ph
  %indvars.iv = phi i64 [ 0, %.lr.ph.preheader ], [ %indvars.iv.next, %.lr.ph ]
  %20 = getelementptr inbounds nuw %"class.std::__cxx11::basic_string", ptr %5, i64 %indvars.iv
  %21 = load ptr, ptr %20, align 8, !tbaa !12
  %22 = getelementptr inbounds nuw ptr, ptr %14, i64 %indvars.iv
  store ptr %21, ptr %22, align 8, !tbaa !49
  %indvars.iv.next = add nuw nsw i64 %indvars.iv, 1
  %exitcond.not = icmp eq i64 %indvars.iv.next, %wide.trip.count
  br i1 %exitcond.not, label %._crit_edge, label %.lr.ph, !llvm.loop !50

_ZNK9ArgOption15invoke_callbackEiPPKc.exit:       ; preds = %18, %._crit_edge, %1
  %.011 = phi i32 [ 0, %1 ], [ %19, %18 ], [ 0, %._crit_edge ]
  ret i32 %.011
}